
target/avr-none/release/spi.elf:     file format elf32-avr


Disassembly of section .text:

00000000 <__vectors>:
   0:	0c 94 34 00 	jmp	0x68	; 0x68 <__ctors_end>
   4:	0c 94 51 00 	jmp	0xa2	; 0xa2 <__bad_interrupt>
   8:	0c 94 51 00 	jmp	0xa2	; 0xa2 <__bad_interrupt>
   c:	0c 94 51 00 	jmp	0xa2	; 0xa2 <__bad_interrupt>
  10:	0c 94 51 00 	jmp	0xa2	; 0xa2 <__bad_interrupt>
  14:	0c 94 51 00 	jmp	0xa2	; 0xa2 <__bad_interrupt>
  18:	0c 94 51 00 	jmp	0xa2	; 0xa2 <__bad_interrupt>
  1c:	0c 94 51 00 	jmp	0xa2	; 0xa2 <__bad_interrupt>
  20:	0c 94 51 00 	jmp	0xa2	; 0xa2 <__bad_interrupt>
  24:	0c 94 51 00 	jmp	0xa2	; 0xa2 <__bad_interrupt>
  28:	0c 94 51 00 	jmp	0xa2	; 0xa2 <__bad_interrupt>
  2c:	0c 94 51 00 	jmp	0xa2	; 0xa2 <__bad_interrupt>
  30:	0c 94 51 00 	jmp	0xa2	; 0xa2 <__bad_interrupt>
  34:	0c 94 51 00 	jmp	0xa2	; 0xa2 <__bad_interrupt>
  38:	0c 94 51 00 	jmp	0xa2	; 0xa2 <__bad_interrupt>
  3c:	0c 94 51 00 	jmp	0xa2	; 0xa2 <__bad_interrupt>
  40:	0c 94 51 00 	jmp	0xa2	; 0xa2 <__bad_interrupt>
  44:	0c 94 51 00 	jmp	0xa2	; 0xa2 <__bad_interrupt>
  48:	0c 94 51 00 	jmp	0xa2	; 0xa2 <__bad_interrupt>
  4c:	0c 94 51 00 	jmp	0xa2	; 0xa2 <__bad_interrupt>
  50:	0c 94 51 00 	jmp	0xa2	; 0xa2 <__bad_interrupt>
  54:	0c 94 51 00 	jmp	0xa2	; 0xa2 <__bad_interrupt>
  58:	0c 94 51 00 	jmp	0xa2	; 0xa2 <__bad_interrupt>
  5c:	0c 94 51 00 	jmp	0xa2	; 0xa2 <__bad_interrupt>
  60:	0c 94 51 00 	jmp	0xa2	; 0xa2 <__bad_interrupt>
  64:	0c 94 51 00 	jmp	0xa2	; 0xa2 <__bad_interrupt>

00000068 <__ctors_end>:
  68:	11 24       	eor	r1, r1
  6a:	1f be       	out	0x3f, r1	; 63
  6c:	cf ef       	ldi	r28, 0xFF	; 255
  6e:	d8 e0       	ldi	r29, 0x08	; 8
  70:	de bf       	out	0x3e, r29	; 62
  72:	cd bf       	out	0x3d, r28	; 61

00000074 <__do_copy_data>:
  74:	11 e0       	ldi	r17, 0x01	; 1

00000076 <.Loc.1>:
  76:	a0 e0       	ldi	r26, 0x00	; 0

00000078 <.Loc.2>:
  78:	b1 e0       	ldi	r27, 0x01	; 1

0000007a <.Loc.3>:
  7a:	e8 e8       	ldi	r30, 0x88	; 136

0000007c <.Loc.4>:
  7c:	f1 e0       	ldi	r31, 0x01	; 1

0000007e <.Loc.5>:
  7e:	02 c0       	rjmp	.+4      	; 0x84 <.L__do_copy_data_start>

00000080 <.L__do_copy_data_loop>:
  80:	05 90       	lpm	r0, Z+

00000082 <.Loc.7>:
  82:	0d 92       	st	X+, r0

00000084 <.L__do_copy_data_start>:
  84:	a6 30       	cpi	r26, 0x06	; 6

00000086 <.Loc.9>:
  86:	b1 07       	cpc	r27, r17

00000088 <.Loc.10>:
  88:	d9 f7       	brne	.-10     	; 0x80 <.L__do_copy_data_loop>

0000008a <__do_clear_bss>:
  8a:	21 e0       	ldi	r18, 0x01	; 1

0000008c <.Loc.1>:
  8c:	a6 e0       	ldi	r26, 0x06	; 6

0000008e <.Loc.2>:
  8e:	b1 e0       	ldi	r27, 0x01	; 1

00000090 <.Loc.3>:
  90:	01 c0       	rjmp	.+2      	; 0x94 <.Loc.5>

00000092 <.Loc.4>:
  92:	1d 92       	st	X+, r1

00000094 <.Loc.5>:
  94:	a7 30       	cpi	r26, 0x07	; 7

00000096 <.Loc.6>:
  96:	b2 07       	cpc	r27, r18

00000098 <.Loc.7>:
  98:	e1 f7       	brne	.-8      	; 0x92 <.Loc.4>

0000009a <L0^A>:
  9a:	0e 94 53 00 	call	0xa6	; 0xa6 <main>
  9e:	0c 94 c2 00 	jmp	0x184	; 0x184 <_exit>

000000a2 <__bad_interrupt>:
  a2:	0c 94 00 00 	jmp	0	; 0x0 <__vectors>

000000a6 <main>:
  a6:	0e 94 55 00 	call	0xaa	; 0xaa <_ZN3spi20__avr_device_rt_main17h5c2c91266fd233b5E>

000000aa <_ZN3spi20__avr_device_rt_main17h5c2c91266fd233b5E>:
  aa:	9f b7       	in	r25, 0x3f	; 63
  ac:	f8 94       	cli
  ae:	80 91 06 01 	lds	r24, 0x0106	; 0x800106 <DEVICE_PERIPHERALS>
  b2:	80 30       	cpi	r24, 0x00	; 0
  b4:	19 f4       	brne	.+6      	; 0xbc <.Lname31+0x1>
  b6:	21 e0       	ldi	r18, 0x01	; 1
  b8:	20 93 06 01 	sts	0x0106, r18	; 0x800106 <DEVICE_PERIPHERALS>
  bc:	99 23       	and	r25, r25
  be:	0a f4       	brpl	.+2      	; 0xc2 <.Lname32>
  c0:	78 94       	sei
  c2:	80 30       	cpi	r24, 0x00	; 0
  c4:	09 f0       	breq	.+2      	; 0xc8 <.Lname33>
  c6:	55 c0       	rjmp	.+170    	; 0x172 <.Lname62+0x1>
  c8:	2d 98       	cbi	0x05, 5	; 5
  ca:	25 9a       	sbi	0x04, 5	; 4
  cc:	2b 98       	cbi	0x05, 3	; 5
  ce:	23 9a       	sbi	0x04, 3	; 4
  d0:	24 98       	cbi	0x04, 4	; 4
  d2:	2c 9a       	sbi	0x05, 4	; 5
  d4:	2a 98       	cbi	0x05, 2	; 5
  d6:	22 9a       	sbi	0x04, 2	; 4
  d8:	84 e5       	ldi	r24, 0x54	; 84
  da:	8c bd       	out	0x2c, r24	; 44
  dc:	1d bc       	out	0x2d, r1	; 45
  de:	80 e0       	ldi	r24, 0x00	; 0
  e0:	90 e0       	ldi	r25, 0x00	; 0
  e2:	21 2d       	mov	r18, r1
  e4:	dc 01       	movw	r26, r24
  e6:	a0 50       	subi	r26, 0x00	; 0
  e8:	bf 4f       	sbci	r27, 0xFF	; 255
  ea:	3c 91       	ld	r19, X
  ec:	21 70       	andi	r18, 0x01	; 1
  ee:	20 30       	cpi	r18, 0x00	; 0
  f0:	19 f0       	breq	.+6      	; 0xf8 <.Lname41+0x1>
  f2:	2d b5       	in	r18, 0x2d	; 45
  f4:	22 23       	and	r18, r18
  f6:	ea f7       	brpl	.-6      	; 0xf2 <.Lname40+0x2>
  f8:	3e bd       	out	0x2e, r19	; 46
  fa:	01 96       	adiw	r24, 0x01	; 1
  fc:	21 e0       	ldi	r18, 0x01	; 1
  fe:	86 30       	cpi	r24, 0x06	; 6
 100:	91 05       	cpc	r25, r1
 102:	81 f7       	brne	.-32     	; 0xe4 <.Lname37+0x5>
 104:	81 e0       	ldi	r24, 0x01	; 1
 106:	98 2f       	mov	r25, r24
 108:	81 70       	andi	r24, 0x01	; 1
 10a:	80 30       	cpi	r24, 0x00	; 0
 10c:	69 f0       	breq	.+26     	; 0x128 <.Lname50>
 10e:	2d b5       	in	r18, 0x2d	; 45
 110:	82 2f       	mov	r24, r18
 112:	88 23       	and	r24, r24
 114:	81 2d       	mov	r24, r1
 116:	0a f0       	brmi	.+2      	; 0x11a <.Lname47+0x2>
 118:	89 2f       	mov	r24, r25
 11a:	22 23       	and	r18, r18
 11c:	32 f0       	brmi	.+12     	; 0x12a <.Lname50+0x2>
 11e:	29 2f       	mov	r18, r25
 120:	21 70       	andi	r18, 0x01	; 1
 122:	20 30       	cpi	r18, 0x00	; 0
 124:	a1 f7       	brne	.-24     	; 0x10e <.Lname45>
 126:	01 c0       	rjmp	.+2      	; 0x12a <.Lname50+0x2>
 128:	89 2f       	mov	r24, r25
 12a:	2e b5       	in	r18, 0x2e	; 46
 12c:	20 30       	cpi	r18, 0x00	; 0
 12e:	59 f3       	breq	.-42     	; 0x106 <.Lname43+0x4>
 130:	92 2f       	mov	r25, r18
 132:	91 56       	subi	r25, 0x61	; 97
 134:	9a 31       	cpi	r25, 0x1A	; 26
 136:	40 f4       	brcc	.+16     	; 0x148 <.Lname55+0x4>
 138:	92 2f       	mov	r25, r18
 13a:	94 55       	subi	r25, 0x54	; 84
 13c:	9a 31       	cpi	r25, 0x1A	; 26
 13e:	10 f0       	brcs	.+4      	; 0x144 <.Lname55>
 140:	2e 56       	subi	r18, 0x6E	; 110
 142:	92 2f       	mov	r25, r18
 144:	9f 59       	subi	r25, 0x9F	; 159
 146:	0d c0       	rjmp	.+26     	; 0x162 <.Lname59+0x3>
 148:	92 2f       	mov	r25, r18
 14a:	91 54       	subi	r25, 0x41	; 65
 14c:	9a 31       	cpi	r25, 0x1A	; 26
 14e:	40 f4       	brcc	.+16     	; 0x160 <.Lname59+0x1>
 150:	92 2f       	mov	r25, r18
 152:	94 53       	subi	r25, 0x34	; 52
 154:	9a 31       	cpi	r25, 0x1A	; 26
 156:	10 f0       	brcs	.+4      	; 0x15c <.Lname58+0x4>
 158:	2e 54       	subi	r18, 0x4E	; 78
 15a:	92 2f       	mov	r25, r18
 15c:	9f 5b       	subi	r25, 0xBF	; 191
 15e:	01 c0       	rjmp	.+2      	; 0x162 <.Lname59+0x3>
 160:	92 2f       	mov	r25, r18
 162:	81 70       	andi	r24, 0x01	; 1
 164:	80 30       	cpi	r24, 0x00	; 0
 166:	19 f0       	breq	.+6      	; 0x16e <.Lname61+0x3>
 168:	8d b5       	in	r24, 0x2d	; 45
 16a:	88 23       	and	r24, r24
 16c:	ea f7       	brpl	.-6      	; 0x168 <.Lname60+0x3>
 16e:	9e bd       	out	0x2e, r25	; 46
 170:	c9 cf       	rjmp	.-110    	; 0x104 <.Lname43+0x2>
 172:	0e 94 bf 00 	call	0x17e	; 0x17e <_ZN4core6option13unwrap_failed17h893c09fa9b2ef1ecE>

00000176 <_ZN4core9panicking9panic_fmt17hd7042d6c4f451955E>:
 176:	0e 94 c1 00 	call	0x182	; 0x182 <_RNvCsk8UOdKf0bkt_7___rustc17rust_begin_unwind>

0000017a <_ZN4core9panicking5panic17h09b4ed8085093dd3E>:
 17a:	0e 94 bb 00 	call	0x176	; 0x176 <_ZN4core9panicking9panic_fmt17hd7042d6c4f451955E>

0000017e <_ZN4core6option13unwrap_failed17h893c09fa9b2ef1ecE>:
 17e:	0e 94 bd 00 	call	0x17a	; 0x17a <_ZN4core9panicking5panic17h09b4ed8085093dd3E>

00000182 <_RNvCsk8UOdKf0bkt_7___rustc17rust_begin_unwind>:
 182:	ff cf       	rjmp	.-2      	; 0x182 <_RNvCsk8UOdKf0bkt_7___rustc17rust_begin_unwind>

00000184 <_exit>:
 184:	f8 94       	cli

00000186 <__stop_program>:
 186:	ff cf       	rjmp	.-2      	; 0x186 <__stop_program>
